; ModuleID = '15/1330.c'
source_filename = "15/1330.c"
target datalayout = "e-m:e-p270:32:32-p271:32:32-p272:64:64-i64:64-f80:128-n8:16:32:64-S128"
target triple = "x86_64-pc-linux-gnu"

@.str = private unnamed_addr constant [3 x i8] c"%d\00", align 1
@.str.1 = private unnamed_addr constant [4 x i8] c"%d\0A\00", align 1

; Function Attrs: noinline nounwind uwtable
define dso_local i32 @main() #0 {
  %1 = alloca i32, align 4
  %2 = alloca i32, align 4
  %3 = alloca i32, align 4
  %4 = alloca i32, align 4
  %5 = alloca i32, align 4
  %6 = alloca i32, align 4
  %7 = alloca i32, align 4
  %8 = alloca i32, align 4
  %9 = alloca i32, align 4
  %10 = alloca [1000 x [1000 x i32]], align 16
  store i32 0, i32* %1, align 4
  store i32 0, i32* %6, align 4
  store i32 0, i32* %7, align 4
  store i32 0, i32* %8, align 4
  store i32 0, i32* %9, align 4
  %11 = call i32 (i8*, ...) @__isoc99_scanf(i8* getelementptr inbounds ([3 x i8], [3 x i8]* @.str, i64 0, i64 0), i32* %2)
  store i32 0, i32* %3, align 4
  br label %12

12:                                               ; preds = %33, %0
  %13 = load i32, i32* %3, align 4
  %14 = load i32, i32* %2, align 4
  %15 = icmp slt i32 %13, %14
  br i1 %15, label %16, label %36

16:                                               ; preds = %12
  store i32 0, i32* %4, align 4
  br label %17

17:                                               ; preds = %29, %16
  %18 = load i32, i32* %4, align 4
  %19 = load i32, i32* %2, align 4
  %20 = icmp slt i32 %18, %19
  br i1 %20, label %21, label %32

21:                                               ; preds = %17
  %22 = load i32, i32* %3, align 4
  %23 = sext i32 %22 to i64
  %24 = getelementptr inbounds [1000 x [1000 x i32]], [1000 x [1000 x i32]]* %10, i64 0, i64 %23
  %25 = load i32, i32* %4, align 4
  %26 = sext i32 %25 to i64
  %27 = getelementptr inbounds [1000 x i32], [1000 x i32]* %24, i64 0, i64 %26
  %28 = call i32 (i8*, ...) @__isoc99_scanf(i8* getelementptr inbounds ([3 x i8], [3 x i8]* @.str, i64 0, i64 0), i32* %27)
  br label %29

29:                                               ; preds = %21
  %30 = load i32, i32* %4, align 4
  %31 = add nsw i32 %30, 1
  store i32 %31, i32* %4, align 4
  br label %17

32:                                               ; preds = %17
  br label %33

33:                                               ; preds = %32
  %34 = load i32, i32* %3, align 4
  %35 = add nsw i32 %34, 1
  store i32 %35, i32* %3, align 4
  br label %12

36:                                               ; preds = %12
  store i32 0, i32* %3, align 4
  br label %37

37:                                               ; preds = %73, %36
  %38 = load i32, i32* %3, align 4
  %39 = load i32, i32* %2, align 4
  %40 = icmp slt i32 %38, %39
  br i1 %40, label %41, label %76

41:                                               ; preds = %37
  store i32 0, i32* %4, align 4
  br label %42

42:                                               ; preds = %59, %41
  %43 = load i32, i32* %4, align 4
  %44 = load i32, i32* %2, align 4
  %45 = icmp slt i32 %43, %44
  br i1 %45, label %46, label %62

46:                                               ; preds = %42
  %47 = load i32, i32* %3, align 4
  %48 = sext i32 %47 to i64
  %49 = getelementptr inbounds [1000 x [1000 x i32]], [1000 x [1000 x i32]]* %10, i64 0, i64 %48
  %50 = load i32, i32* %4, align 4
  %51 = sext i32 %50 to i64
  %52 = getelementptr inbounds [1000 x i32], [1000 x i32]* %49, i64 0, i64 %51
  %53 = load i32, i32* %52, align 4
  %54 = icmp eq i32 %53, 0
  br i1 %54, label %55, label %58

55:                                               ; preds = %46
  %56 = load i32, i32* %3, align 4
  store i32 %56, i32* %6, align 4
  %57 = load i32, i32* %4, align 4
  store i32 %57, i32* %8, align 4
  br label %62

58:                                               ; preds = %46
  br label %59

59:                                               ; preds = %58
  %60 = load i32, i32* %4, align 4
  %61 = add nsw i32 %60, 1
  store i32 %61, i32* %4, align 4
  br label %42

62:                                               ; preds = %55, %42
  %63 = load i32, i32* %6, align 4
  %64 = sext i32 %63 to i64
  %65 = getelementptr inbounds [1000 x [1000 x i32]], [1000 x [1000 x i32]]* %10, i64 0, i64 %64
  %66 = load i32, i32* %8, align 4
  %67 = sext i32 %66 to i64
  %68 = getelementptr inbounds [1000 x i32], [1000 x i32]* %65, i64 0, i64 %67
  %69 = load i32, i32* %68, align 4
  %70 = icmp eq i32 %69, 0
  br i1 %70, label %71, label %72

71:                                               ; preds = %62
  br label %76

72:                                               ; preds = %62
  br label %73

73:                                               ; preds = %72
  %74 = load i32, i32* %3, align 4
  %75 = add nsw i32 %74, 1
  store i32 %75, i32* %3, align 4
  br label %37

76:                                               ; preds = %71, %37
  store i32 0, i32* %3, align 4
  br label %77

77:                                               ; preds = %111, %76
  %78 = load i32, i32* %3, align 4
  %79 = load i32, i32* %2, align 4
  %80 = icmp slt i32 %78, %79
  br i1 %80, label %81, label %114

81:                                               ; preds = %77
  store i32 0, i32* %4, align 4
  br label %82

82:                                               ; preds = %107, %81
  %83 = load i32, i32* %4, align 4
  %84 = load i32, i32* %2, align 4
  %85 = icmp slt i32 %83, %84
  br i1 %85, label %86, label %110

86:                                               ; preds = %82
  %87 = load i32, i32* %3, align 4
  %88 = sext i32 %87 to i64
  %89 = getelementptr inbounds [1000 x [1000 x i32]], [1000 x [1000 x i32]]* %10, i64 0, i64 %88
  %90 = load i32, i32* %4, align 4
  %91 = sext i32 %90 to i64
  %92 = getelementptr inbounds [1000 x i32], [1000 x i32]* %89, i64 0, i64 %91
  %93 = load i32, i32* %92, align 4
  %94 = icmp eq i32 %93, 0
  br i1 %94, label %95, label %106

95:                                               ; preds = %86
  %96 = load i32, i32* %7, align 4
  %97 = load i32, i32* %3, align 4
  %98 = icmp sle i32 %96, %97
  br i1 %98, label %99, label %106

99:                                               ; preds = %95
  %100 = load i32, i32* %9, align 4
  %101 = load i32, i32* %4, align 4
  %102 = icmp sle i32 %100, %101
  br i1 %102, label %103, label %106

103:                                              ; preds = %99
  %104 = load i32, i32* %3, align 4
  store i32 %104, i32* %7, align 4
  %105 = load i32, i32* %4, align 4
  store i32 %105, i32* %9, align 4
  br label %106

106:                                              ; preds = %103, %99, %95, %86
  br label %107

107:                                              ; preds = %106
  %108 = load i32, i32* %4, align 4
  %109 = add nsw i32 %108, 1
  store i32 %109, i32* %4, align 4
  br label %82

110:                                              ; preds = %82
  br label %111

111:                                              ; preds = %110
  %112 = load i32, i32* %3, align 4
  %113 = add nsw i32 %112, 1
  store i32 %113, i32* %3, align 4
  br label %77

114:                                              ; preds = %77
  %115 = load i32, i32* %9, align 4
  %116 = load i32, i32* %8, align 4
  %117 = sub nsw i32 %115, %116
  %118 = sub nsw i32 %117, 1
  %119 = load i32, i32* %7, align 4
  %120 = load i32, i32* %6, align 4
  %121 = sub nsw i32 %119, %120
  %122 = sub nsw i32 %121, 1
  %123 = mul nsw i32 %118, %122
  store i32 %123, i32* %5, align 4
  %124 = load i32, i32* %5, align 4
  %125 = call i32 (i8*, ...) @printf(i8* getelementptr inbounds ([4 x i8], [4 x i8]* @.str.1, i64 0, i64 0), i32 %124)
  ret i32 0
}

declare dso_local i32 @__isoc99_scanf(i8*, ...) #1

declare dso_local i32 @printf(i8*, ...) #1


!llvm.module.flags = !{!0}
!llvm.ident = !{!1}

!0 = !{i32 1, !"wchar_size", i32 4}
!1 = !{!"clang version 10.0.0-4ubuntu1 "}
